target datalayout = "e-m:e-p270:32:32-p271:32:32-p272:64:64-i64:64-i128:128-f80:128-n8:16:32:64-S128"
target triple = "x86_64-pc-linux-gnu"

%struct.SDL_BlitInfo = type { ptr, ptr, i32, i32, i32, i32, ptr, ptr, i32, i32, i32, i32, ptr, ptr, ptr, ptr, ptr, ptr, i32, i32, i8, i8, i8, i8 }

; Function Attrs: nounwind uwtable
define internal void @SDL_Blit_XBGR8888_XBGR8888_Blend_Scale(ptr noundef %0) #0 {
  %2 = alloca ptr, align 8
  %3 = alloca i32, align 4
  %4 = alloca i32, align 4
  %5 = alloca i32, align 4
  %6 = alloca i32, align 4
  %7 = alloca i32, align 4
  %8 = alloca i32, align 4
  %9 = alloca i32, align 4
  %10 = alloca i32, align 4
  %11 = alloca i32, align 4
  %12 = alloca i64, align 8
  %13 = alloca i64, align 8
  %14 = alloca i64, align 8
  %15 = alloca i64, align 8
  %16 = alloca i64, align 8
  %17 = alloca i64, align 8
  %18 = alloca ptr, align 8
  %19 = alloca ptr, align 8
  %20 = alloca i32, align 4
  %21 = alloca i16, align 2
  %22 = alloca i16, align 2
  %23 = alloca i16, align 2
  %24 = alloca i16, align 2
  %25 = alloca i16, align 2
  %26 = alloca i16, align 2
  store ptr %0, ptr %2, align 8
  call void @llvm.lifetime.start.p0(i64 4, ptr %3) #2
  %27 = load ptr, ptr %2, align 8
  %28 = getelementptr inbounds nuw %struct.SDL_BlitInfo, ptr %27, i32 0, i32 18
  %29 = load i32, ptr %28, align 8
  store i32 %29, ptr %3, align 4
  call void @llvm.lifetime.start.p0(i64 4, ptr %4) #2
  call void @llvm.lifetime.start.p0(i64 4, ptr %5) #2
  call void @llvm.lifetime.start.p0(i64 4, ptr %6) #2
  call void @llvm.lifetime.start.p0(i64 4, ptr %7) #2
  call void @llvm.lifetime.start.p0(i64 4, ptr %8) #2
  call void @llvm.lifetime.start.p0(i64 4, ptr %9) #2
  call void @llvm.lifetime.start.p0(i64 4, ptr %10) #2
  call void @llvm.lifetime.start.p0(i64 4, ptr %11) #2
  call void @llvm.lifetime.start.p0(i64 8, ptr %12) #2
  call void @llvm.lifetime.start.p0(i64 8, ptr %13) #2
  call void @llvm.lifetime.start.p0(i64 8, ptr %14) #2
  call void @llvm.lifetime.start.p0(i64 8, ptr %15) #2
  call void @llvm.lifetime.start.p0(i64 8, ptr %16) #2
  call void @llvm.lifetime.start.p0(i64 8, ptr %17) #2
  %30 = load ptr, ptr %2, align 8
  %31 = getelementptr inbounds nuw %struct.SDL_BlitInfo, ptr %30, i32 0, i32 3
  %32 = load i32, ptr %31, align 4
  %33 = sext i32 %32 to i64
  %34 = shl i64 %33, 16
  %35 = load ptr, ptr %2, align 8
  %36 = getelementptr inbounds nuw %struct.SDL_BlitInfo, ptr %35, i32 0, i32 9
  %37 = load i32, ptr %36, align 4
  %38 = sext i32 %37 to i64
  %39 = udiv i64 %34, %38
  store i64 %39, ptr %16, align 8
  %40 = load ptr, ptr %2, align 8
  %41 = getelementptr inbounds nuw %struct.SDL_BlitInfo, ptr %40, i32 0, i32 2
  %42 = load i32, ptr %41, align 8
  %43 = sext i32 %42 to i64
  %44 = shl i64 %43, 16
  %45 = load ptr, ptr %2, align 8
  %46 = getelementptr inbounds nuw %struct.SDL_BlitInfo, ptr %45, i32 0, i32 8
  %47 = load i32, ptr %46, align 8
  %48 = sext i32 %47 to i64
  %49 = udiv i64 %44, %48
  store i64 %49, ptr %17, align 8
  %50 = load i64, ptr %16, align 8
  %51 = udiv i64 %50, 2
  store i64 %51, ptr %14, align 8
  br label %52

52:                                               ; preds = %290, %1
  %53 = load ptr, ptr %2, align 8
  %54 = getelementptr inbounds nuw %struct.SDL_BlitInfo, ptr %53, i32 0, i32 9
  %55 = load i32, ptr %54, align 4
  %56 = add nsw i32 %55, -1
  store i32 %56, ptr %54, align 4
  %57 = icmp ne i32 %55, 0
  br i1 %57, label %58, label %302

58:                                               ; preds = %52
  call void @llvm.lifetime.start.p0(i64 8, ptr %18) #2
  store ptr null, ptr %18, align 8
  call void @llvm.lifetime.start.p0(i64 8, ptr %19) #2
  %59 = load ptr, ptr %2, align 8
  %60 = getelementptr inbounds nuw %struct.SDL_BlitInfo, ptr %59, i32 0, i32 7
  %61 = load ptr, ptr %60, align 8
  store ptr %61, ptr %19, align 8
  call void @llvm.lifetime.start.p0(i64 4, ptr %20) #2
  %62 = load ptr, ptr %2, align 8
  %63 = getelementptr inbounds nuw %struct.SDL_BlitInfo, ptr %62, i32 0, i32 8
  %64 = load i32, ptr %63, align 8
  store i32 %64, ptr %20, align 4
  %65 = load i64, ptr %17, align 8
  %66 = udiv i64 %65, 2
  store i64 %66, ptr %15, align 8
  %67 = load i64, ptr %14, align 8
  %68 = lshr i64 %67, 16
  store i64 %68, ptr %12, align 8
  br label %69

69:                                               ; preds = %275, %58
  %70 = load i32, ptr %20, align 4
  %71 = add nsw i32 %70, -1
  store i32 %71, ptr %20, align 4
  %72 = icmp ne i32 %70, 0
  br i1 %72, label %73, label %290

73:                                               ; preds = %69
  %74 = load i64, ptr %15, align 8
  %75 = lshr i64 %74, 16
  store i64 %75, ptr %13, align 8
  %76 = load ptr, ptr %2, align 8
  %77 = getelementptr inbounds nuw %struct.SDL_BlitInfo, ptr %76, i32 0, i32 1
  %78 = load ptr, ptr %77, align 8
  %79 = load i64, ptr %12, align 8
  %80 = load ptr, ptr %2, align 8
  %81 = getelementptr inbounds nuw %struct.SDL_BlitInfo, ptr %80, i32 0, i32 4
  %82 = load i32, ptr %81, align 8
  %83 = sext i32 %82 to i64
  %84 = mul i64 %79, %83
  %85 = getelementptr inbounds nuw i8, ptr %78, i64 %84
  %86 = load i64, ptr %13, align 8
  %87 = mul i64 %86, 4
  %88 = getelementptr inbounds nuw i8, ptr %85, i64 %87
  store ptr %88, ptr %18, align 8
  %89 = load ptr, ptr %18, align 8
  %90 = load i32, ptr %89, align 4
  store i32 %90, ptr %4, align 4
  %91 = load i32, ptr %4, align 4
  %92 = lshr i32 %91, 16
  %93 = trunc i32 %92 to i8
  %94 = zext i8 %93 to i32
  store i32 %94, ptr %7, align 4
  %95 = load i32, ptr %4, align 4
  %96 = lshr i32 %95, 8
  %97 = trunc i32 %96 to i8
  %98 = zext i8 %97 to i32
  store i32 %98, ptr %6, align 4
  %99 = load i32, ptr %4, align 4
  %100 = trunc i32 %99 to i8
  %101 = zext i8 %100 to i32
  store i32 %101, ptr %5, align 4
  %102 = load ptr, ptr %19, align 8
  %103 = load i32, ptr %102, align 4
  store i32 %103, ptr %8, align 4
  %104 = load i32, ptr %8, align 4
  %105 = lshr i32 %104, 16
  %106 = trunc i32 %105 to i8
  %107 = zext i8 %106 to i32
  store i32 %107, ptr %11, align 4
  %108 = load i32, ptr %8, align 4
  %109 = lshr i32 %108, 8
  %110 = trunc i32 %109 to i8
  %111 = zext i8 %110 to i32
  store i32 %111, ptr %10, align 4
  %112 = load i32, ptr %8, align 4
  %113 = trunc i32 %112 to i8
  %114 = zext i8 %113 to i32
  store i32 %114, ptr %9, align 4
  %115 = load i32, ptr %3, align 4
  %116 = and i32 %115, 1008
  switch i32 %116, label %275 [
    i32 16, label %117
    i32 32, label %121
    i32 64, label %125
    i32 128, label %125
    i32 256, label %147
    i32 512, label %211
  ]

117:                                              ; preds = %73
  %118 = load i32, ptr %5, align 4
  store i32 %118, ptr %9, align 4
  %119 = load i32, ptr %6, align 4
  store i32 %119, ptr %10, align 4
  %120 = load i32, ptr %7, align 4
  store i32 %120, ptr %11, align 4
  br label %275

121:                                              ; preds = %73
  %122 = load i32, ptr %5, align 4
  store i32 %122, ptr %9, align 4
  %123 = load i32, ptr %6, align 4
  store i32 %123, ptr %10, align 4
  %124 = load i32, ptr %7, align 4
  store i32 %124, ptr %11, align 4
  br label %275

125:                                              ; preds = %73, %73
  %126 = load i32, ptr %5, align 4
  %127 = load i32, ptr %9, align 4
  %128 = add i32 %126, %127
  store i32 %128, ptr %9, align 4
  %129 = load i32, ptr %9, align 4
  %130 = icmp ugt i32 %129, 255
  br i1 %130, label %131, label %132

131:                                              ; preds = %125
  store i32 255, ptr %9, align 4
  br label %132

132:                                              ; preds = %131, %125
  %133 = load i32, ptr %6, align 4
  %134 = load i32, ptr %10, align 4
  %135 = add i32 %133, %134
  store i32 %135, ptr %10, align 4
  %136 = load i32, ptr %10, align 4
  %137 = icmp ugt i32 %136, 255
  br i1 %137, label %138, label %139

138:                                              ; preds = %132
  store i32 255, ptr %10, align 4
  br label %139

139:                                              ; preds = %138, %132
  %140 = load i32, ptr %7, align 4
  %141 = load i32, ptr %11, align 4
  %142 = add i32 %140, %141
  store i32 %142, ptr %11, align 4
  %143 = load i32, ptr %11, align 4
  %144 = icmp ugt i32 %143, 255
  br i1 %144, label %145, label %146

145:                                              ; preds = %139
  store i32 255, ptr %11, align 4
  br label %146

146:                                              ; preds = %145, %139
  br label %275

147:                                              ; preds = %73
  br label %148

148:                                              ; preds = %147
  call void @llvm.lifetime.start.p0(i64 2, ptr %21) #2
  %149 = load i32, ptr %5, align 4
  %150 = load i32, ptr %9, align 4
  %151 = mul i32 %149, %150
  %152 = trunc i32 %151 to i16
  store i16 %152, ptr %21, align 2
  %153 = load i16, ptr %21, align 2
  %154 = zext i16 %153 to i32
  %155 = add i32 %154, 1
  %156 = trunc i32 %155 to i16
  store i16 %156, ptr %21, align 2
  %157 = load i16, ptr %21, align 2
  %158 = zext i16 %157 to i32
  %159 = ashr i32 %158, 8
  %160 = load i16, ptr %21, align 2
  %161 = zext i16 %160 to i32
  %162 = add nsw i32 %161, %159
  %163 = trunc i32 %162 to i16
  store i16 %163, ptr %21, align 2
  %164 = load i16, ptr %21, align 2
  %165 = zext i16 %164 to i32
  %166 = ashr i32 %165, 8
  store i32 %166, ptr %9, align 4
  call void @llvm.lifetime.end.p0(i64 2, ptr %21) #2
  br label %167

167:                                              ; preds = %148
  br label %168

168:                                              ; preds = %167
  br label %169

169:                                              ; preds = %168
  call void @llvm.lifetime.start.p0(i64 2, ptr %22) #2
  %170 = load i32, ptr %6, align 4
  %171 = load i32, ptr %10, align 4
  %172 = mul i32 %170, %171
  %173 = trunc i32 %172 to i16
  store i16 %173, ptr %22, align 2
  %174 = load i16, ptr %22, align 2
  %175 = zext i16 %174 to i32
  %176 = add i32 %175, 1
  %177 = trunc i32 %176 to i16
  store i16 %177, ptr %22, align 2
  %178 = load i16, ptr %22, align 2
  %179 = zext i16 %178 to i32
  %180 = ashr i32 %179, 8
  %181 = load i16, ptr %22, align 2
  %182 = zext i16 %181 to i32
  %183 = add nsw i32 %182, %180
  %184 = trunc i32 %183 to i16
  store i16 %184, ptr %22, align 2
  %185 = load i16, ptr %22, align 2
  %186 = zext i16 %185 to i32
  %187 = ashr i32 %186, 8
  store i32 %187, ptr %10, align 4
  call void @llvm.lifetime.end.p0(i64 2, ptr %22) #2
  br label %188

188:                                              ; preds = %169
  br label %189

189:                                              ; preds = %188
  br label %190

190:                                              ; preds = %189
  call void @llvm.lifetime.start.p0(i64 2, ptr %23) #2
  %191 = load i32, ptr %7, align 4
  %192 = load i32, ptr %11, align 4
  %193 = mul i32 %191, %192
  %194 = trunc i32 %193 to i16
  store i16 %194, ptr %23, align 2
  %195 = load i16, ptr %23, align 2
  %196 = zext i16 %195 to i32
  %197 = add i32 %196, 1
  %198 = trunc i32 %197 to i16
  store i16 %198, ptr %23, align 2
  %199 = load i16, ptr %23, align 2
  %200 = zext i16 %199 to i32
  %201 = ashr i32 %200, 8
  %202 = load i16, ptr %23, align 2
  %203 = zext i16 %202 to i32
  %204 = add nsw i32 %203, %201
  %205 = trunc i32 %204 to i16
  store i16 %205, ptr %23, align 2
  %206 = load i16, ptr %23, align 2
  %207 = zext i16 %206 to i32
  %208 = ashr i32 %207, 8
  store i32 %208, ptr %11, align 4
  call void @llvm.lifetime.end.p0(i64 2, ptr %23) #2
  br label %209

209:                                              ; preds = %190
  br label %210

210:                                              ; preds = %209
  br label %275

211:                                              ; preds = %73
  br label %212

212:                                              ; preds = %211
  call void @llvm.lifetime.start.p0(i64 2, ptr %24) #2
  %213 = load i32, ptr %5, align 4
  %214 = load i32, ptr %9, align 4
  %215 = mul i32 %213, %214
  %216 = trunc i32 %215 to i16
  store i16 %216, ptr %24, align 2
  %217 = load i16, ptr %24, align 2
  %218 = zext i16 %217 to i32
  %219 = add i32 %218, 1
  %220 = trunc i32 %219 to i16
  store i16 %220, ptr %24, align 2
  %221 = load i16, ptr %24, align 2
  %222 = zext i16 %221 to i32
  %223 = ashr i32 %222, 8
  %224 = load i16, ptr %24, align 2
  %225 = zext i16 %224 to i32
  %226 = add nsw i32 %225, %223
  %227 = trunc i32 %226 to i16
  store i16 %227, ptr %24, align 2
  %228 = load i16, ptr %24, align 2
  %229 = zext i16 %228 to i32
  %230 = ashr i32 %229, 8
  store i32 %230, ptr %9, align 4
  call void @llvm.lifetime.end.p0(i64 2, ptr %24) #2
  br label %231

231:                                              ; preds = %212
  br label %232

232:                                              ; preds = %231
  br label %233

233:                                              ; preds = %232
  call void @llvm.lifetime.start.p0(i64 2, ptr %25) #2
  %234 = load i32, ptr %6, align 4
  %235 = load i32, ptr %10, align 4
  %236 = mul i32 %234, %235
  %237 = trunc i32 %236 to i16
  store i16 %237, ptr %25, align 2
  %238 = load i16, ptr %25, align 2
  %239 = zext i16 %238 to i32
  %240 = add i32 %239, 1
  %241 = trunc i32 %240 to i16
  store i16 %241, ptr %25, align 2
  %242 = load i16, ptr %25, align 2
  %243 = zext i16 %242 to i32
  %244 = ashr i32 %243, 8
  %245 = load i16, ptr %25, align 2
  %246 = zext i16 %245 to i32
  %247 = add nsw i32 %246, %244
  %248 = trunc i32 %247 to i16
  store i16 %248, ptr %25, align 2
  %249 = load i16, ptr %25, align 2
  %250 = zext i16 %249 to i32
  %251 = ashr i32 %250, 8
  store i32 %251, ptr %10, align 4
  call void @llvm.lifetime.end.p0(i64 2, ptr %25) #2
  br label %252

252:                                              ; preds = %233
  br label %253

253:                                              ; preds = %252
  br label %254

254:                                              ; preds = %253
  call void @llvm.lifetime.start.p0(i64 2, ptr %26) #2
  %255 = load i32, ptr %7, align 4
  %256 = load i32, ptr %11, align 4
  %257 = mul i32 %255, %256
  %258 = trunc i32 %257 to i16
  store i16 %258, ptr %26, align 2
  %259 = load i16, ptr %26, align 2
  %260 = zext i16 %259 to i32
  %261 = add i32 %260, 1
  %262 = trunc i32 %261 to i16
  store i16 %262, ptr %26, align 2
  %263 = load i16, ptr %26, align 2
  %264 = zext i16 %263 to i32
  %265 = ashr i32 %264, 8
  %266 = load i16, ptr %26, align 2
  %267 = zext i16 %266 to i32
  %268 = add nsw i32 %267, %265
  %269 = trunc i32 %268 to i16
  store i16 %269, ptr %26, align 2
  %270 = load i16, ptr %26, align 2
  %271 = zext i16 %270 to i32
  %272 = ashr i32 %271, 8
  store i32 %272, ptr %11, align 4
  call void @llvm.lifetime.end.p0(i64 2, ptr %26) #2
  br label %273

273:                                              ; preds = %254
  br label %274

274:                                              ; preds = %273
  br label %275

275:                                              ; preds = %73, %274, %210, %146, %121, %117
  %276 = load i32, ptr %11, align 4
  %277 = shl i32 %276, 16
  %278 = load i32, ptr %10, align 4
  %279 = shl i32 %278, 8
  %280 = or i32 %277, %279
  %281 = load i32, ptr %9, align 4
  %282 = or i32 %280, %281
  store i32 %282, ptr %8, align 4
  %283 = load i32, ptr %8, align 4
  %284 = load ptr, ptr %19, align 8
  store i32 %283, ptr %284, align 4
  %285 = load i64, ptr %17, align 8
  %286 = load i64, ptr %15, align 8
  %287 = add i64 %286, %285
  store i64 %287, ptr %15, align 8
  %288 = load ptr, ptr %19, align 8
  %289 = getelementptr inbounds nuw i32, ptr %288, i32 1
  store ptr %289, ptr %19, align 8
  br label %69, !llvm.loop !78

290:                                              ; preds = %69
  %291 = load i64, ptr %16, align 8
  %292 = load i64, ptr %14, align 8
  %293 = add i64 %292, %291
  store i64 %293, ptr %14, align 8
  %294 = load ptr, ptr %2, align 8
  %295 = getelementptr inbounds nuw %struct.SDL_BlitInfo, ptr %294, i32 0, i32 10
  %296 = load i32, ptr %295, align 8
  %297 = load ptr, ptr %2, align 8
  %298 = getelementptr inbounds nuw %struct.SDL_BlitInfo, ptr %297, i32 0, i32 7
  %299 = load ptr, ptr %298, align 8
  %300 = sext i32 %296 to i64
  %301 = getelementptr inbounds i8, ptr %299, i64 %300
  store ptr %301, ptr %298, align 8
  call void @llvm.lifetime.end.p0(i64 4, ptr %20) #2
  call void @llvm.lifetime.end.p0(i64 8, ptr %19) #2
  call void @llvm.lifetime.end.p0(i64 8, ptr %18) #2
  br label %52, !llvm.loop !79

302:                                              ; preds = %52
  call void @llvm.lifetime.end.p0(i64 8, ptr %17) #2
  call void @llvm.lifetime.end.p0(i64 8, ptr %16) #2
  call void @llvm.lifetime.end.p0(i64 8, ptr %15) #2
  call void @llvm.lifetime.end.p0(i64 8, ptr %14) #2
  call void @llvm.lifetime.end.p0(i64 8, ptr %13) #2
  call void @llvm.lifetime.end.p0(i64 8, ptr %12) #2
  call void @llvm.lifetime.end.p0(i64 4, ptr %11) #2
  call void @llvm.lifetime.end.p0(i64 4, ptr %10) #2
  call void @llvm.lifetime.end.p0(i64 4, ptr %9) #2
  call void @llvm.lifetime.end.p0(i64 4, ptr %8) #2
  call void @llvm.lifetime.end.p0(i64 4, ptr %7) #2
  call void @llvm.lifetime.end.p0(i64 4, ptr %6) #2
  call void @llvm.lifetime.end.p0(i64 4, ptr %5) #2
  call void @llvm.lifetime.end.p0(i64 4, ptr %4) #2
  call void @llvm.lifetime.end.p0(i64 4, ptr %3) #2
  ret void
}